; Function Attrs: mustprogress nofree norecurse nosync nounwind willreturn memory(argmem: write) uwtable
define hidden noundef i32 @internal_exr_context_restore_handlers(ptr noundef writeonly captures(none) initializes((56, 80)) %0, i32 noundef returned %1) local_unnamed_addr #4 {
  %3 = getelementptr inbounds nuw i8, ptr %0, i64 56
  store ptr @dispatch_standard_error, ptr %3, align 8, !tbaa !26
  %4 = getelementptr inbounds nuw i8, ptr %0, i64 64
  store ptr @dispatch_error, ptr %4, align 8, !tbaa !52
  %5 = getelementptr inbounds nuw i8, ptr %0, i64 72
  store ptr @dispatch_print_error, ptr %5, align 8, !tbaa !53
  ret i32 %1
}